ccopy_reg
_reconstructor
p0
(cgoogle.oauth2.credentials
Credentials
p1
c__builtin__
object
p2
Ntp3
Rp4
(dp5
S'_token_uri'
p6
Vhttps://accounts.google.com/o/oauth2/token
p7
sS'_scopes'
p8
(lp9
S'https://www.googleapis.com/auth/gmail.send'
p10
asS'_id_token'
p11
NsS'token'
p12
Vya29.GlwPB040CZ-2SrR_MkyudIj1WXeoFP3wL9fMl5iNSavg_eqqscwpWBkgtjkwjcnANM9fbaEi8gmWmRlZ6nAshszoJDrQnq9e_fAQRi94rmTyat38pi64J08ML4Mf_g
p13
sS'_refresh_token'
p14
V1/v8aWOu0YCWvgX53qTN2COGddzGGEZhlYRd-Jjb6iLEo
p15
sS'_client_secret'
p16
V4aLk-Pn8QgHGIhVQRutB0UPp
p17
sS'_client_id'
p18
V1001572913605-vp2pfmrrjdv5ddcuf4v92r0sn3ds03q3.apps.googleusercontent.com
p19
sS'expiry'
p20
cdatetime
datetime
p21
(S'\x07\xe3\x05\x13\x16\x07.\t\xc8{'
p22
tp23
Rp24
sb.